
Allocating common symbols
Common symbol       size              file

pgd                 0x4               page.o
scancode_work       0xc               key.o
kernel_start_pfn    0x4               buddy.o
keyb_buffer         0x420             key.o
vga                 0x28              vga.o
boot_mm             0x90              bootmm.o
info_work           0xc               time.o
f0                  0x4               key.o
interrupt           0x174             intr.o
io_key_data         0x4               key.o
kernel_end_pfn      0x4               buddy.o
buddy               0x54              buddy.o
pages               0x4               buddy.o
kmalloc_caches      0x270             slub.o

Memory Configuration

Name             Origin             Length             Attributes
*default*        0x0000000000000000 0xffffffffffffffff

Linker script and memory map

Address of section .text set to 0x3000
LOAD start.o
LOAD arch.o
LOAD page.o
LOAD init.o
LOAD except.o
LOAD exint.o
LOAD intr.o
LOAD vga.o
LOAD time.o
LOAD key.o
LOAD bootmm.o
LOAD buddy.o
LOAD slub.o
LOAD lock.o
LOAD print.o
LOAD tool.o
                0x0000000080020000                .=0x80020000

.interp
 *(.interp)

.gnu.version
 *(.gnu.version)

.gnu.version_d
 *(.gnu.version_d)

.gnu.version_r
 *(.gnu.version_r)

.rel.init
 *(.rel.init)

.rela.init
 *(.rela.init)

.rel.text
 *(.rel.text)
 *(.rel.text.*)
 *(.rel.gnu.linkonce.t*)

.rela.text
 *(.rela.text)
 *(.rela.text.*)
 *(.rela.gnu.linkonce.t*)

.rel.fini
 *(.rel.fini)

.rela.fini
 *(.rela.fini)

.rel.rodata
 *(.rel.rodata)
 *(.rel.rodata.*)
 *(.rel.gnu.linkonce.r*)

.rela.rodata
 *(.rela.rodata)
 *(.rela.rodata.*)
 *(.rela.gnu.linkonce.r*)

.rel.data
 *(.rel.data)
 *(.rel.data.*)
 *(.rel.gnu.linkonce.d*)

.rela.data
 *(.rela.data)
 *(.rela.data.*)
 *(.rela.gnu.linkonce.d*)

.rel.ctors
 *(.rel.ctors)

.rela.ctors
 *(.rela.ctors)

.rel.dtors
 *(.rel.dtors)

.rela.dtors
 *(.rela.dtors)

.rel.got
 *(.rel.got)

.rela.got
 *(.rela.got)

.rel.sdata
 *(.rel.sdata)
 *(.rel.sdata1)
 *(.rel.sdata.*)
 *(.rel.gnu.linkonce.s*)

.rela.sdata
 *(.rela.sdata)
 *(.rela.sdata1)
 *(.rela.sdata.*)
 *(.rela.gnu.linkonce.s*)

.rel.sbss
 *(.rel.sbss)

.rela.sbss
 *(.rela.sbss)

.rel.sdata2
 *(.rel.sdata2)

.rela.sdata2
 *(.rela.sdata2)

.rel.sbss2
 *(.rel.sbss2)

.rela.sbss2
 *(.rela.sbss2)

.rel.bss
 *(.rel.bss)

.rela.bss
 *(.rela.bss)

.rel.plt
 *(.rel.plt)

.rela.plt
 *(.rela.plt)

.plt
 *(.plt)

.text           0x0000000000003000     0x6280
                0x0000000000003000                _ftext=.
 *(.text)
 .text          0x0000000000003000       0x1c start.o
                0x0000000000003000                start
 .text          0x000000000000301c       0x84 arch.o
                0x0000000000003064                get_cpu_hz
                0x0000000000003040                get_sd_size
                0x0000000000003088                die
                0x000000000000301c                get_phymm_size
 .text          0x00000000000030a0      0x544 page.o
                0x00000000000030a0                init_pgtable
                0x000000000000335c                disable_paging
                0x000000000000331c                enable_paging
                0x00000000000034c4                set_pt_entry
                0x00000000000033a4                set_pgd_entry
 .text          0x00000000000035e4      0x130 init.o
                0x0000000000003670                init_kernel
                0x00000000000035e4                machine_info
 .text          0x0000000000003714      0x508 except.o
                0x0000000000003714                do_ri
                0x0000000000003b8c                do_exception
 .text          0x0000000000003c1c      0x174 exint.o
                0x0000000000003d8c                _end_ex
                0x0000000000003c1c                _exint_handler
 .text          0x0000000000003d90      0x850 intr.o
                0x00000000000040f0                set_timer
                0x0000000000004130                get_ier
                0x0000000000004190                get_icr
                0x0000000000004204                register_handler
                0x00000000000040c0                get_timer
                0x00000000000042bc                unregister_handler
                0x0000000000004058                disable_intr
                0x0000000000004004                enable_intr
                0x000000000000441c                unregister_work
                0x0000000000004360                register_work
                0x0000000000003d90                init_exint
                0x0000000000004160                set_ier
                0x0000000000003e94                do_interrupt
                0x00000000000041c0                clean_icr
 .text          0x00000000000045e0      0x954 vga.o
                0x00000000000045e0                init_vga
                0x0000000000004788                clean_screen
                0x0000000000004884                set_cursor
                0x0000000000004928                scroll_screen
                0x0000000000004ab4                put_char_ex
                0x0000000000004bf0                put_char
 .text          0x0000000000004f34      0x75c time.o
                0x0000000000004f34                timer_handler
                0x00000000000053a8                init_systime
                0x0000000000005410                init_time
                0x000000000000551c                flush_systime
 .text          0x0000000000005690      0x54c key.o
                0x0000000000005690                keyb_handler
                0x00000000000058b4                get_scancode
                0x0000000000005a70                get_ch
                0x000000000000576c                init_keyboard
 .text          0x0000000000005bdc     0x1060 bootmm.o
                0x0000000000005f88                insert_mminfo
                0x0000000000006b40                bootmap_info
                0x0000000000005d70                split_mminfo
                0x0000000000005c3c                remove_mminfo
                0x00000000000061c0                init_bootmm
                0x0000000000006478                find_pages
                0x00000000000063dc                set_maps
                0x0000000000005bdc                set_mminfo
                0x00000000000067cc                bootmm_free_pages
                0x0000000000006660                bootmm_alloc_pages
 .text          0x0000000000006c3c      0xdcc buddy.o
                0x000000000000783c                free_pages
                0x0000000000007208                _free_pages
                0x0000000000006ec0                init_buddy
                0x0000000000007508                _alloc_pages
                0x0000000000006c74                init_pages
                0x0000000000006c3c                set_private
                0x0000000000006dcc                buddy_info
                0x000000000000778c                alloc_pages
                0x00000000000071c4                is_buddy
 .text          0x0000000000007a08      0xe2c slub.o
                0x0000000000007a08                get_slub
                0x0000000000007b68                init_each_slub
                0x00000000000085c0                kfree
                0x0000000000007b18                init_kmem_node
                0x0000000000007f8c                slub_alloc
                0x00000000000082f4                slub_free
                0x0000000000007c44                init_slub
                0x0000000000007adc                init_kmem_cpu
                0x00000000000084d8                kmalloc
                0x0000000000007dcc                format_slubpage
 .text          0x0000000000008834      0x178 lock.o
                0x0000000000008884                lockup
                0x00000000000088fc                unlock
                0x0000000000008834                init_lock
 .text          0x00000000000089ac      0x4d8 print.o
                0x0000000000008c40                print_char
                0x0000000000008c94                print_str
                0x0000000000008d2c                print_binary
                0x00000000000089ac                printk
                0x0000000000008dd8                print_hex
 .text          0x0000000000008e84      0x3fc tool.o
                0x0000000000008e84                memcpy
                0x0000000000009054                multiply
                0x0000000000009008                mkshort
                0x0000000000008fc0                mkint
                0x0000000000008f34                memset
                0x0000000000009144                highest_set
                0x00000000000091b4                lowest_set
                0x00000000000090c8                division
                0x0000000000009224                is_bound
 *(.text.*)
 *(.stub)
 *(.gnu.warning)
 *(.gnu.linkonce.t*)
 *(.mips16.fn.*)
 *(.mips16.call.*)
                0x0000000000009280                _ecode=.

.init
 *(.init)

.fini
 *(.fini)

.rodata         0x0000000000009280      0x590
 *(.rodata)
 .rodata        0x0000000000009280       0x64 init.o
 .rodata        0x00000000000092e4       0xe7 intr.o
 *fill*         0x00000000000093cb 0xe700000001
 .rodata        0x00000000000093cc       0x55 vga.o
 *fill*         0x0000000000009421 0x5500000003
 .rodata        0x0000000000009424       0x82 time.o
 *fill*         0x00000000000094a6 0x8200000002
 .rodata        0x00000000000094a8       0x38 key.o
 .rodata        0x00000000000094e0       0xad bootmm.o
 *fill*         0x000000000000958d 0xad00000003
 .rodata        0x0000000000009590       0x91 buddy.o
 *fill*         0x0000000000009621 0x9100000003
 .rodata        0x0000000000009624       0x7c slub.o
 .rodata        0x00000000000096a0      0x170 print.o
 *(.rodata.*)
 *(.gnu.linkonce.r*)

.rodata1
 *(.rodata1)

.sdata2
 *(.sdata2)

.sbss2
 *(.sbss2)

.sdeinit
 *(.sdeinit)

.sdefini
 *(.sdefini)

.eh_frame
 *(.eh_frame)

.gcc_except_table
 *(.gcc_except_table)

.ctors
 *crt0.o(.ctors)
 *crtbegin.o(.ctors)
 *crtbeginS.o(.ctors)
 EXCLUDE_FILE ( *crtn.o, *crtendS.o, *crtend.o)*(.ctors)
 *(SORT(.ctors.*))
 *(.ctors)

.dtors
 *crt0.o(.dtors)
 *crtbegin.o(.dtors)
 *crtbeginS.o(.dtors)
 EXCLUDE_FILE ( *crtn.o, *crtendS.o, *crtend.o)*(.dtors)
 *(SORT(.dtors.*))
 *(.dtors)

.dynamic
 *(.dynamic)

.dynsym
 *(.dynsym)

.hash
 *(.hash)

.dynstr
 *(.dynstr)
                0x0000000000009810                __etext=.
                0x0000000000009810                _etext=.
                0x0000000000009810                PROVIDE (etext, .)
                0x0000000000009810                .=ALIGN(0x8)

.data           0x0000000000009810       0xec
                0x0000000000009810                _fdata=.
 *(.data)
 .data          0x0000000000009810       0x70 key.o
                0x0000000000009810                keymap
 .data          0x0000000000009880       0x1c bootmm.o
                0x0000000000009880                mem_msg
 .data          0x000000000000989c       0x60 slub.o
 *(.data.*)
 *(.gnu.linkonce.d*)

.data1
 *(.data1)
                0x00000000000118f0                _gp=(ALIGN(0x10)+0x7ff0)

.got
 *(.got.plt)
 *(.got)

.sdata          0x00000000000098fc        0x4
 *(.sdata)
 .sdata         0x00000000000098fc        0x4 print.o
                0x00000000000098fc                imap
 *(.sdata1)
 *(.sdata.*)
 *(.gnu.linkonce.s.*)

.lit8
 *(.lit8)

.lit4
 *(.lit4)
                0x0000000000009900                .=ALIGN(0x8)
                0x0000000000009900                _edata=.
                0x0000000000009900                PROVIDE (edata, .)
                0x0000000000009900                __bss_start=.
                0x0000000000009900                PROVIDE (__edata, .)
                0x0000000000009900                _fbss=.

.sbss           0x0000000000009900       0x40
                0x0000000000009900                __sbss_start=.
                0x0000000000009900                ___sbss_start=.
 *(.dynsbss)
 *(.sbss)
 .sbss          0x0000000000009900       0x24 time.o
 .sbss          0x0000000000009924        0x4 key.o
 *(.sbss.*)
 *(.scommon)
 .scommon       0x0000000000009928        0x4 page.o
                                          0x0 (size before relaxing)
                0x0000000000009928                pgd
 .scommon       0x000000000000992c        0x8 key.o
                                          0x0 (size before relaxing)
                0x000000000000992c                f0
                0x0000000000009930                io_key_data
 .scommon       0x0000000000009934        0xc buddy.o
                                          0x0 (size before relaxing)
                0x0000000000009934                kernel_start_pfn
                0x0000000000009938                kernel_end_pfn
                0x000000000000993c                pages
                0x0000000000009940                __sbss_end=.
                0x0000000000009940                ___sbss_end=.

.bss            0x0000000000009940      0x928
 *(.dynbss)
 *(.bss)
 *(.bss.*)
 *(COMMON)
 COMMON         0x0000000000009940      0x174 intr.o
                                          0x0 (size before relaxing)
                0x0000000000009940                interrupt
 COMMON         0x0000000000009ab4       0x28 vga.o
                                          0x0 (size before relaxing)
                0x0000000000009ab4                vga
 COMMON         0x0000000000009adc        0xc time.o
                                          0x0 (size before relaxing)
                0x0000000000009adc                info_work
 COMMON         0x0000000000009ae8      0x42c key.o
                                          0x0 (size before relaxing)
                0x0000000000009ae8                scancode_work
                0x0000000000009af4                keyb_buffer
 COMMON         0x0000000000009f14       0x90 bootmm.o
                                          0x0 (size before relaxing)
                0x0000000000009f14                boot_mm
 COMMON         0x0000000000009fa4       0x54 buddy.o
                                          0x0 (size before relaxing)
                0x0000000000009fa4                buddy
 COMMON         0x0000000000009ff8      0x270 slub.o
                                          0x0 (size before relaxing)
                0x0000000000009ff8                kmalloc_caches
                0x000000000000a268                .=ALIGN(0x4)
                0x000000000000a268                .=ALIGN(0x4)
                0x000000000000a268                _end=.
                0x000000000000a268                PROVIDE (__end, .)
                0x000000000000a268                PROVIDE (end, .)

.stab
 *(.stab)

.stabstr
 *(.stabstr)

.stab.excl
 *(.stab.excl)

.stab.exclstr
 *(.stab.exclstr)

.stab.index
 *(.stab.index)

.stab.indexstr
 *(.stab.indexstr)

.comment        0x0000000000000000      0x1c0
 *(.comment)
 .comment       0x0000000000000000       0x20 arch.o
 .comment       0x0000000000000020       0x20 page.o
 .comment       0x0000000000000040       0x20 init.o
 .comment       0x0000000000000060       0x20 except.o
 .comment       0x0000000000000080       0x20 intr.o
 .comment       0x00000000000000a0       0x20 vga.o
 .comment       0x00000000000000c0       0x20 time.o
 .comment       0x00000000000000e0       0x20 key.o
 .comment       0x0000000000000100       0x20 bootmm.o
 .comment       0x0000000000000120       0x20 buddy.o
 .comment       0x0000000000000140       0x20 slub.o
 .comment       0x0000000000000160       0x20 lock.o
 .comment       0x0000000000000180       0x20 print.o
 .comment       0x00000000000001a0       0x20 tool.o

.debug
 *(.debug)

.line
 *(.line)

.debug_srcinfo
 *(.debug_srcinfo)

.debug_sfnames
 *(.debug_sfnames)

.debug_aranges
 *(.debug_aranges)

.debug_pubnames
 *(.debug_pubnames)

.debug_info
 *(.debug_info)

.debug_abbrev
 *(.debug_abbrev)

.debug_line
 *(.debug_line)

.debug_frame
 *(.debug_frame)

.debug_str
 *(.debug_str)

.debug_loc
 *(.debug_loc)

.debug_macinfo
 *(.debug_macinfo)

.debug_weaknames
 *(.debug_weaknames)

.debug_funcnames
 *(.debug_funcnames)

.debug_typenames
 *(.debug_typenames)

.debug_varnames
 *(.debug_varnames)

/DISCARD/
 *(.reginfo)

.gptab.sdata
 *(.gptab.data)
 *(.gptab.sdata)

.gptab.sbss
 *(.gptab.bss)
 *(.gptab.sbss)

.pdr            0x0000000000000000      0xe40
 *(.pdr)
 .pdr           0x0000000000000000       0x80 arch.o
 .pdr           0x0000000000000080       0xa0 page.o
 .pdr           0x0000000000000120       0x40 init.o
 .pdr           0x0000000000000160       0x40 except.o
 .pdr           0x00000000000001a0      0x280 intr.o
 .pdr           0x0000000000000420       0xc0 vga.o
 .pdr           0x00000000000004e0      0x120 time.o
 .pdr           0x0000000000000600       0xc0 key.o
 .pdr           0x00000000000006c0      0x140 bootmm.o
 .pdr           0x0000000000000800      0x1e0 buddy.o
 .pdr           0x00000000000009e0      0x220 slub.o
 .pdr           0x0000000000000c00       0x80 lock.o
 .pdr           0x0000000000000c80       0xa0 print.o
 .pdr           0x0000000000000d20      0x120 tool.o
OUTPUT(kernel.elf elf32-littlemips)
